(dp1
S'sort_id'
p2
NsS'sort_order'
p3
NsS'columns'
p4
(dp5
S'Client'
p6
(dp7
S'position'
p8
I2
sS'width'
p9
I100
ssS'Address'
p10
(dp11
g8
I1
sg9
I100
ssS'Progress'
p12
(dp13
g8
I3
sg9
I100
ssN(dp14
g8
I0
sg9
I20
ssS'Up Speed'
p15
(dp16
g8
I5
sg9
I1487
ssS'Down Speed'
p17
(dp18
g8
I4
sg9
I105
sss.